target datalayout = "e-m:e-p270:32:32-p271:32:32-p272:64:64-i64:64-i128:128-f80:128-n8:16:32:64-S128"
target triple = "x86_64-pc-linux-gnu"

%struct.RelationData = type { %struct.RelFileLocator, ptr, i32, i32, i8, i8, i8, i8, i8, i32, i32, i32, i32, ptr, ptr, i32, %struct.LockInfoData, ptr, ptr, ptr, ptr, ptr, i8, ptr, ptr, ptr, ptr, ptr, ptr, i32, ptr, i8, ptr, ptr, i32, i8, i32, ptr, i8, ptr, ptr, ptr, ptr, ptr, ptr, ptr, i32, ptr, ptr, ptr, ptr, ptr, ptr, ptr, ptr, ptr, ptr, ptr, ptr, ptr, ptr, ptr, ptr, ptr, ptr, ptr, i32, i8, ptr }
%struct.RelFileLocator = type { i32, i32, i32 }
%struct.LockInfoData = type { %struct.LockRelId }
%struct.LockRelId = type { i32, i32 }
%struct.FormData_pg_class = type { i32, %struct.nameData, i32, i32, i32, i32, i32, i32, i32, i32, float, i32, i32, i8, i8, i8, i8, i16, i16, i8, i8, i8, i8, i8, i8, i8, i8, i32, i32, i32 }
%struct.nameData = type { [64 x i8] }
%struct.StdRdOptions = type { i32, i32, i32, %struct.AutoVacOpts, i8, i32, i32, i8, double }
%struct.AutoVacOpts = type { i8, i32, i32, i32, i32, i32, i32, i32, i32, i32, i32, i32, i32, double, double, double, double }
%struct.xl_heap_visible = type { i32, i8 }

@wal_level = external global i32, align 4
@wal_log_hints = external global i8, align 1

; Function Attrs: nounwind uwtable
define dso_local i64 @log_heap_visible(ptr noundef %0, i32 noundef %1, i32 noundef %2, i32 noundef %3, i8 noundef zeroext %4) #0 {
  %6 = alloca ptr, align 8
  %7 = alloca i32, align 4
  %8 = alloca i32, align 4
  %9 = alloca i32, align 4
  %10 = alloca i8, align 1
  %11 = alloca %struct.xl_heap_visible, align 4
  %12 = alloca i64, align 8
  %13 = alloca i8, align 1
  store ptr %0, ptr %6, align 8
  store i32 %1, ptr %7, align 4
  store i32 %2, ptr %8, align 4
  store i32 %3, ptr %9, align 4
  store i8 %4, ptr %10, align 1
  call void @llvm.lifetime.start.p0(i64 8, ptr %11) #10
  call void @llvm.lifetime.start.p0(i64 8, ptr %12) #10
  call void @llvm.lifetime.start.p0(i64 1, ptr %13) #10
  %14 = load i32, ptr %9, align 4
  %15 = getelementptr inbounds nuw %struct.xl_heap_visible, ptr %11, i32 0, i32 0
  store i32 %14, ptr %15, align 4
  %16 = load i8, ptr %10, align 1
  %17 = getelementptr inbounds nuw %struct.xl_heap_visible, ptr %11, i32 0, i32 1
  store i8 %16, ptr %17, align 4
  %18 = load i32, ptr @wal_level, align 4
  %19 = icmp sge i32 %18, 2
  br i1 %19, label %20, label %79

20:                                               ; preds = %5
  %21 = load ptr, ptr %6, align 8
  %22 = getelementptr inbounds nuw %struct.RelationData, ptr %21, i32 0, i32 13
  %23 = load ptr, ptr %22, align 8
  %24 = getelementptr inbounds nuw %struct.FormData_pg_class, ptr %23, i32 0, i32 15
  %25 = load i8, ptr %24, align 2
  %26 = sext i8 %25 to i32
  %27 = icmp eq i32 %26, 112
  br i1 %27, label %28, label %79

28:                                               ; preds = %20
  %29 = load i32, ptr @wal_level, align 4
  %30 = icmp sge i32 %29, 1
  br i1 %30, label %41, label %31

31:                                               ; preds = %28
  %32 = load ptr, ptr %6, align 8
  %33 = getelementptr inbounds nuw %struct.RelationData, ptr %32, i32 0, i32 9
  %34 = load i32, ptr %33, align 8
  %35 = icmp eq i32 %34, 0
  br i1 %35, label %36, label %79

36:                                               ; preds = %31
  %37 = load ptr, ptr %6, align 8
  %38 = getelementptr inbounds nuw %struct.RelationData, ptr %37, i32 0, i32 11
  %39 = load i32, ptr %38, align 8
  %40 = icmp eq i32 %39, 0
  br i1 %40, label %41, label %79

41:                                               ; preds = %36, %28
  %42 = load ptr, ptr %6, align 8
  %43 = call zeroext i1 @IsCatalogRelation(ptr noundef %42)
  br i1 %43, label %73, label %44

44:                                               ; preds = %41
  %45 = load ptr, ptr %6, align 8
  %46 = getelementptr inbounds nuw %struct.RelationData, ptr %45, i32 0, i32 45
  %47 = load ptr, ptr %46, align 8
  %48 = icmp ne ptr %47, null
  br i1 %48, label %49, label %72

49:                                               ; preds = %44
  %50 = load ptr, ptr %6, align 8
  %51 = getelementptr inbounds nuw %struct.RelationData, ptr %50, i32 0, i32 13
  %52 = load ptr, ptr %51, align 8
  %53 = getelementptr inbounds nuw %struct.FormData_pg_class, ptr %52, i32 0, i32 16
  %54 = load i8, ptr %53, align 1
  %55 = sext i8 %54 to i32
  %56 = icmp eq i32 %55, 114
  br i1 %56, label %65, label %57

57:                                               ; preds = %49
  %58 = load ptr, ptr %6, align 8
  %59 = getelementptr inbounds nuw %struct.RelationData, ptr %58, i32 0, i32 13
  %60 = load ptr, ptr %59, align 8
  %61 = getelementptr inbounds nuw %struct.FormData_pg_class, ptr %60, i32 0, i32 16
  %62 = load i8, ptr %61, align 1
  %63 = sext i8 %62 to i32
  %64 = icmp eq i32 %63, 109
  br i1 %64, label %65, label %72

65:                                               ; preds = %57, %49
  %66 = load ptr, ptr %6, align 8
  %67 = getelementptr inbounds nuw %struct.RelationData, ptr %66, i32 0, i32 45
  %68 = load ptr, ptr %67, align 8
  %69 = getelementptr inbounds nuw %struct.StdRdOptions, ptr %68, i32 0, i32 4
  %70 = load i8, ptr %69, align 8, !range !4, !noundef !5
  %71 = trunc i8 %70 to i1
  br i1 %71, label %73, label %79

72:                                               ; preds = %57, %44
  br i1 false, label %73, label %79

73:                                               ; preds = %72, %65, %41
  %74 = getelementptr inbounds nuw %struct.xl_heap_visible, ptr %11, i32 0, i32 1
  %75 = load i8, ptr %74, align 4
  %76 = zext i8 %75 to i32
  %77 = or i32 %76, 4
  %78 = trunc i32 %77 to i8
  store i8 %78, ptr %74, align 4
  br label %79

79:                                               ; preds = %73, %72, %65, %36, %31, %20, %5
  call void @XLogBeginInsert()
  call void @XLogRegisterData(ptr noundef %11, i32 noundef 5)
  %80 = load i32, ptr %8, align 4
  call void @XLogRegisterBuffer(i8 noundef zeroext 0, i32 noundef %80, i8 noundef zeroext 0)
  store i8 8, ptr %13, align 1
  %81 = call zeroext i1 @DataChecksumsEnabled()
  br i1 %81, label %90, label %82

82:                                               ; preds = %79
  %83 = load i8, ptr @wal_log_hints, align 1, !range !4, !noundef !5
  %84 = trunc i8 %83 to i1
  br i1 %84, label %90, label %85

85:                                               ; preds = %82
  %86 = load i8, ptr %13, align 1
  %87 = zext i8 %86 to i32
  %88 = or i32 %87, 2
  %89 = trunc i32 %88 to i8
  store i8 %89, ptr %13, align 1
  br label %90

90:                                               ; preds = %85, %82, %79
  %91 = load i32, ptr %7, align 4
  %92 = load i8, ptr %13, align 1
  call void @XLogRegisterBuffer(i8 noundef zeroext 1, i32 noundef %91, i8 noundef zeroext %92)
  %93 = call i64 @XLogInsert(i8 noundef zeroext 9, i8 noundef zeroext 64)
  store i64 %93, ptr %12, align 8
  %94 = load i64, ptr %12, align 8
  call void @llvm.lifetime.end.p0(i64 1, ptr %13) #10
  call void @llvm.lifetime.end.p0(i64 8, ptr %12) #10
  call void @llvm.lifetime.end.p0(i64 8, ptr %11) #10
  ret i64 %94
}