; Function Attrs: nounwind uwtable
define dso_local i64 @log_heap_visible(ptr noundef %0, i32 noundef %1, i32 noundef %2, i32 noundef %3, i8 noundef zeroext %4) local_unnamed_addr #2 {
  %6 = alloca %struct.xl_heap_visible, align 4
  call void @llvm.lifetime.start.p0(i64 8, ptr nonnull %6) #13
  store i32 %3, ptr %6, align 4
  %7 = getelementptr inbounds nuw i8, ptr %6, i64 4
  store i8 %4, ptr %7, align 4
  %8 = load i32, ptr @wal_level, align 4
  %9 = icmp sgt i32 %8, 1
  br i1 %9, label %10, label %31

10:                                               ; preds = %5
  %11 = getelementptr inbounds nuw i8, ptr %0, i64 56
  %12 = load ptr, ptr %11, align 8
  %13 = getelementptr inbounds nuw i8, ptr %12, i64 114
  %14 = load i8, ptr %13, align 2
  %15 = icmp eq i8 %14, 112
  br i1 %15, label %16, label %31

16:                                               ; preds = %10
  %17 = tail call zeroext i1 @IsCatalogRelation(ptr noundef nonnull %0) #13
  br i1 %17, label %29, label %18

18:                                               ; preds = %16
  %19 = getelementptr inbounds nuw i8, ptr %0, i64 304
  %20 = load ptr, ptr %19, align 8
  %.not = icmp eq ptr %20, null
  br i1 %.not, label %31, label %21

21:                                               ; preds = %18
  %22 = load ptr, ptr %11, align 8
  %23 = getelementptr inbounds nuw i8, ptr %22, i64 115
  %24 = load i8, ptr %23, align 1
  switch i8 %24, label %31 [
    i8 114, label %25
    i8 109, label %25
  ]

25:                                               ; preds = %21, %21
  %26 = getelementptr inbounds nuw i8, ptr %20, i64 104
  %27 = load i8, ptr %26, align 8, !range !6, !noundef !7
  %28 = trunc nuw i8 %27 to i1
  br i1 %28, label %29, label %31

29:                                               ; preds = %25, %16
  %30 = or i8 %4, 4
  store i8 %30, ptr %7, align 4
  br label %31

31:                                               ; preds = %21, %18, %29, %25, %10, %5
  tail call void @XLogBeginInsert() #13
  call void @XLogRegisterData(ptr noundef nonnull %6, i32 noundef 5) #13
  call void @XLogRegisterBuffer(i8 noundef zeroext 0, i32 noundef %2, i8 noundef zeroext 0) #13
  %32 = call zeroext i1 @DataChecksumsEnabled() #13
  %33 = load i8, ptr @wal_log_hints, align 1, !range !6
  %34 = trunc nuw i8 %33 to i1
  %35 = select i1 %32, i1 true, i1 %34
  %.0 = select i1 %35, i8 8, i8 10
  call void @XLogRegisterBuffer(i8 noundef zeroext 1, i32 noundef %1, i8 noundef zeroext %.0) #13
  %36 = call i64 @XLogInsert(i8 noundef zeroext 9, i8 noundef zeroext 64) #13
  call void @llvm.lifetime.end.p0(i64 8, ptr nonnull %6) #13
  ret i64 %36
}